; Function Attrs: mustprogress uwtable
define noundef nonnull align 8 dereferenceable(200) ptr @_ZN6icu_7510UnicodeSet9retainAllERKS0_(ptr noundef nonnull returned align 8 dereferenceable(200) %this, ptr nocapture noundef nonnull readonly align 8 dereferenceable(200) %c) unnamed_addr #1 align 2 {
entry:
  %bmpSet.i = getelementptr inbounds i8, ptr %this, i64 40
  %0 = load ptr, ptr %bmpSet.i, align 8
  %cmp.not.i = icmp eq ptr %0, null
  %stringSpan.i = getelementptr inbounds i8, ptr %this, i64 88
  %1 = load ptr, ptr %stringSpan.i, align 8
  %cmp2.i = icmp eq ptr %1, null
  %narrow.i.not = select i1 %cmp.not.i, i1 %cmp2.i, i1 false
  br i1 %narrow.i.not, label %lor.lhs.false, label %return

lor.lhs.false:                                    ; preds = %entry
  %fFlags.i = getelementptr inbounds i8, ptr %this, i64 32
  %2 = load i8, ptr %fFlags.i, align 8
  %3 = and i8 %2, 1
  %tobool3.not = icmp eq i8 %3, 0
  br i1 %tobool3.not, label %if.end, label %return

if.end:                                           ; preds = %lor.lhs.false
  %list = getelementptr inbounds i8, ptr %c, i64 16
  %4 = load ptr, ptr %list, align 8
  %len = getelementptr inbounds i8, ptr %c, i64 28
  %5 = load i32, ptr %len, align 4
  tail call void @_ZN6icu_7510UnicodeSet6retainEPKiia(ptr noundef nonnull align 8 dereferenceable(200) %this, ptr noundef %4, i32 noundef %5, i8 noundef signext 0)
  %strings.i = getelementptr inbounds i8, ptr %this, i64 80
  %6 = load ptr, ptr %strings.i, align 8
  %cmp.not.i4 = icmp eq ptr %6, null
  br i1 %cmp.not.i4, label %return, label %_ZNK6icu_7510UnicodeSet10hasStringsEv.exit

_ZNK6icu_7510UnicodeSet10hasStringsEv.exit:       ; preds = %if.end
  %count.i.i = getelementptr inbounds i8, ptr %6, i64 8
  %7 = load i32, ptr %count.i.i, align 8
  %cmp.i.i.not = icmp eq i32 %7, 0
  br i1 %cmp.i.i.not, label %return, label %if.then6

if.then6:                                         ; preds = %_ZNK6icu_7510UnicodeSet10hasStringsEv.exit
  %strings.i6 = getelementptr inbounds i8, ptr %c, i64 80
  %8 = load ptr, ptr %strings.i6, align 8
  %cmp.not.i7 = icmp eq ptr %8, null
  br i1 %cmp.not.i7, label %if.then9, label %_ZNK6icu_7510UnicodeSet10hasStringsEv.exit12

_ZNK6icu_7510UnicodeSet10hasStringsEv.exit12:     ; preds = %if.then6
  %count.i.i9 = getelementptr inbounds i8, ptr %8, i64 8
  %9 = load i32, ptr %count.i.i9, align 8
  %cmp.i.i10.not = icmp eq i32 %9, 0
  br i1 %cmp.i.i10.not, label %if.then9, label %if.else

if.then9:                                         ; preds = %if.then6, %_ZNK6icu_7510UnicodeSet10hasStringsEv.exit12
  tail call void @_ZN6icu_757UVector17removeAllElementsEv(ptr noundef nonnull align 8 dereferenceable(40) %6)
  br label %return

if.else:                                          ; preds = %_ZNK6icu_7510UnicodeSet10hasStringsEv.exit12
  %call12 = tail call noundef signext i8 @_ZN6icu_757UVector9retainAllERKS0_(ptr noundef nonnull align 8 dereferenceable(40) %6, ptr noundef nonnull align 8 dereferenceable(40) %8)
  br label %return

return:                                           ; preds = %if.end, %_ZNK6icu_7510UnicodeSet10hasStringsEv.exit, %if.else, %if.then9, %entry, %lor.lhs.false
  ret ptr %this
}